target datalayout = "e-m:e-p270:32:32-p271:32:32-p272:64:64-i64:64-i128:128-f80:128-n8:16:32:64-S128"
target triple = "x86_64-pc-linux-gnu"

%struct.ssl_aead_ctx_st = type { ptr, %struct.evp_aead_ctx_st, [12 x i8], i8, i8, i8, i8, i8, i8, i8 }
%struct.evp_aead_ctx_st = type { ptr, ptr }

; Function Attrs: nounwind uwtable
define hidden i64 @SSL_AEAD_CTX_explicit_nonce_len(ptr noundef %0) #0 {
  %2 = alloca i64, align 8
  %3 = alloca ptr, align 8
  store ptr %0, ptr %3, align 8, !tbaa !19
  %4 = load ptr, ptr %3, align 8, !tbaa !19
  %5 = icmp ne ptr %4, null
  br i1 %5, label %6, label %17

6:                                                ; preds = %1
  %7 = load ptr, ptr %3, align 8, !tbaa !19
  %8 = getelementptr inbounds nuw %struct.ssl_aead_ctx_st, ptr %7, i32 0, i32 5
  %9 = load i8, ptr %8, align 2, !tbaa !31
  %10 = sext i8 %9 to i32
  %11 = icmp ne i32 %10, 0
  br i1 %11, label %12, label %17

12:                                               ; preds = %6
  %13 = load ptr, ptr %3, align 8, !tbaa !19
  %14 = getelementptr inbounds nuw %struct.ssl_aead_ctx_st, ptr %13, i32 0, i32 4
  %15 = load i8, ptr %14, align 1, !tbaa !26
  %16 = zext i8 %15 to i64
  store i64 %16, ptr %2, align 8
  br label %18

17:                                               ; preds = %6, %1
  store i64 0, ptr %2, align 8
  br label %18

18:                                               ; preds = %17, %12
  %19 = load i64, ptr %2, align 8
  ret i64 %19
}