; Function Attrs: mustprogress nofree norecurse nosync nounwind willreturn memory(argmem: read) uwtable
define hidden range(i64 0, 256) i64 @SSL_AEAD_CTX_explicit_nonce_len(ptr noundef readonly captures(address_is_null) %0) local_unnamed_addr #6 {
  %.not = icmp eq ptr %0, null
  br i1 %.not, label %9, label %2

2:                                                ; preds = %1
  %3 = getelementptr inbounds nuw i8, ptr %0, i64 38
  %4 = load i8, ptr %3, align 2, !tbaa !22
  %.not4 = icmp eq i8 %4, 0
  br i1 %.not4, label %9, label %5

5:                                                ; preds = %2
  %6 = getelementptr inbounds nuw i8, ptr %0, i64 37
  %7 = load i8, ptr %6, align 1, !tbaa !15
  %8 = zext i8 %7 to i64
  br label %9

9:                                                ; preds = %1, %2, %5
  %.0 = phi i64 [ %8, %5 ], [ 0, %2 ], [ 0, %1 ]
  ret i64 %.0
}